(lp0
(dp1
S'status'
p2
S'ok'
p3
sS'dim'
p4
I5
sS'profiling'
p5
I0
sS'warmtime'
p6
F0.02385711669921875
sS'name'
p7
S'        Intel(R) Core(TM) i7-3770 CPU @ 3.40GHz'
p8
sS'neurons_per_product'
p9
I128
sS'buildtime'
p10
F1.962419033050537
sS'runtime'
p11
F0.16875791549682617
sS'benchmark'
p12
S'circ-conv'
p13
sS'simtime'
p14
F1.0
sa(dp15
g2
g3
sg4
I10
sg5
I0
sg6
F0.023417949676513672
sg7
S'        Intel(R) Core(TM) i7-3770 CPU @ 3.40GHz'
p16
sg9
I128
sg10
F2.9140570163726807
sg11
F0.25656604766845703
sg12
g13
sg14
F1.0
sa(dp17
g2
g3
sg4
I20
sg5
I0
sg6
F0.025650978088378906
sg7
S'        Intel(R) Core(TM) i7-3770 CPU @ 3.40GHz'
p18
sg9
I128
sg10
F5.7381432056427
sg11
F0.4821438789367676
sg12
g13
sg14
F1.0
sa(dp19
g2
g3
sg4
I50
sg5
I0
sg6
F0.03067493438720703
sg7
S'        Intel(R) Core(TM) i7-3770 CPU @ 3.40GHz'
p20
sg9
I128
sg10
F14.575912952423096
sg11
F1.1027231216430664
sg12
g13
sg14
F1.0
sa(dp21
g2
g3
sg4
I100
sg5
I0
sg6
F0.04596400260925293
sg7
S'        Intel(R) Core(TM) i7-3770 CPU @ 3.40GHz'
p22
sg9
I128
sg10
F31.59182906150818
sg11
F2.1966259479522705
sg12
g13
sg14
F1.0
sa(dp23
g2
g3
sg4
I200
sg5
I0
sg6
F0.07367420196533203
sg7
S'        Intel(R) Core(TM) i7-3770 CPU @ 3.40GHz'
p24
sg9
I128
sg10
F68.17558789253235
sg11
F5.191482782363892
sg12
g13
sg14
F1.0
sa(dp25
g2
g3
sg4
I500
sg5
I0
sg6
F0.20918488502502441
sg7
S'        Intel(R) Core(TM) i7-3770 CPU @ 3.40GHz'
p26
sg9
I128
sg10
F228.51285314559937
sg11
F17.179381132125854
sg12
g13
sg14
F1.0
sa.