(lp0
(dp1
S'status'
p2
S'ok'
p3
sS'dim'
p4
I5
sS'profiling'
p5
I0
sS'warmtime'
p6
F0.05299997329711914
sS'name'
p7
S'       Intel(R) Xeon(R) CPU E5-2620 0 @ 2.00GHz'
p8
sS'neurons_per_product'
p9
I128
sS'buildtime'
p10
F5.368000030517578
sS'runtime'
p11
F0.21600008010864258
sS'benchmark'
p12
S'circ-conv'
p13
sS'simtime'
p14
F1.0
sa(dp15
g2
g3
sg4
I10
sg5
I0
sg6
F0.0070002079010009766
sg7
S'       Intel(R) Xeon(R) CPU E5-2620 0 @ 2.00GHz'
p16
sg9
I128
sg10
F4.793999910354614
sg11
F0.28799986839294434
sg12
g13
sg14
F1.0
sa(dp17
g2
g3
sg4
I20
sg5
I0
sg6
F0.01100015640258789
sg7
S'       Intel(R) Xeon(R) CPU E5-2620 0 @ 2.00GHz'
p18
sg9
I128
sg10
F8.006999969482422
sg11
F0.4509999752044678
sg12
g13
sg14
F1.0
sa(dp19
g2
g3
sg4
I50
sg5
I0
sg6
F0.024000167846679688
sg7
S'       Intel(R) Xeon(R) CPU E5-2620 0 @ 2.00GHz'
p20
sg9
I128
sg10
F21.301999807357788
sg11
F0.8939998149871826
sg12
g13
sg14
F1.0
sa(dp21
g2
g3
sg4
I100
sg5
I0
sg6
F0.042999982833862305
sg7
S'       Intel(R) Xeon(R) CPU E5-2620 0 @ 2.00GHz'
p22
sg9
I128
sg10
F47.2720000743866
sg11
F1.683000087738037
sg12
g13
sg14
F1.0
sa(dp23
g2
g3
sg4
I200
sg5
I0
sg6
F0.0840001106262207
sg7
S'       Intel(R) Xeon(R) CPU E5-2620 0 @ 2.00GHz'
p24
sg9
I128
sg10
F107.53699994087219
sg11
F3.4699997901916504
sg12
g13
sg14
F1.0
sa(dp25
g2
g3
sg4
I500
sg5
I0
sg6
F0.2389998435974121
sg7
S'       Intel(R) Xeon(R) CPU E5-2620 0 @ 2.00GHz'
p26
sg9
I128
sg10
F390.0770001411438
sg11
F12.396000146865845
sg12
g13
sg14
F1.0
sa.