(lp0
(dp1
S'status'
p2
S'ok'
p3
sS'dim'
p4
I5
sS'profiling'
p5
I0
sS'warmtime'
p6
F0.035362958908081055
sS'name'
p7
S'Intel(R) Xeon(R) CPU           E5540  @ 2.53GHz'
p8
sS'neurons_per_product'
p9
I128
sS'buildtime'
p10
F9.480093002319336
sS'runtime'
p11
F0.21180295944213867
sS'benchmark'
p12
S'circ-conv'
p13
sS'simtime'
p14
F1.0
sa(dp15
g2
g3
sg4
I10
sg5
I0
sg6
F0.03837299346923828
sg7
S'Intel(R) Xeon(R) CPU           E5540  @ 2.53GHz'
p16
sg9
I128
sg10
F7.363796949386597
sg11
F0.2946939468383789
sg12
g13
sg14
F1.0
sa(dp17
g2
g3
sg4
I20
sg5
I0
sg6
F0.03830289840698242
sg7
S'Intel(R) Xeon(R) CPU           E5540  @ 2.53GHz'
p18
sg9
I128
sg10
F15.14263391494751
sg11
F0.5057370662689209
sg12
g13
sg14
F1.0
sa(dp19
g2
g3
sg4
I50
sg5
I0
sg6
F0.06607794761657715
sg7
S'Intel(R) Xeon(R) CPU           E5540  @ 2.53GHz'
p20
sg9
I128
sg10
F38.78103709220886
sg11
F1.150386095046997
sg12
g13
sg14
F1.0
sa(dp21
g2
g3
sg4
I100
sg5
I0
sg6
F0.0628960132598877
sg7
S'Intel(R) Xeon(R) CPU           E5540  @ 2.53GHz'
p22
sg9
I128
sg10
F80.17463612556458
sg11
F2.249940872192383
sg12
g13
sg14
F1.0
sa(dp23
g2
g3
sg4
I200
sg5
I0
sg6
F0.09264898300170898
sg7
S'Intel(R) Xeon(R) CPU           E5540  @ 2.53GHz'
p24
sg9
I128
sg10
F172.11959600448608
sg11
F4.776575803756714
sg12
g13
sg14
F1.0
sa(dp25
g2
g3
sg4
I500
sg5
I0
sg6
F0.23064780235290527
sg7
S'Intel(R) Xeon(R) CPU           E5540  @ 2.53GHz'
p26
sg9
I128
sg10
F513.2730371952057
sg11
F16.316649198532104
sg12
g13
sg14
F1.0
sa.