(lp0
(dp1
S'status'
p2
S'ok'
p3
sS'dim'
p4
I5
sS'profiling'
p5
I0
sS'warmtime'
p6
F0.13297510147094727
sS'name'
p7
S'Tahiti'
p8
sS'neurons_per_product'
p9
I128
sS'buildtime'
p10
F1.780838966369629
sS'runtime'
p11
F0.08065390586853027
sS'benchmark'
p12
S'circ-conv'
p13
sS'simtime'
p14
F1.0
sa(dp15
g2
g3
sg4
I10
sg5
I0
sg6
F0.13025403022766113
sg7
S'Tahiti'
p16
sg9
I128
sg10
F2.926269769668579
sg11
F0.07201504707336426
sg12
g13
sg14
F1.0
sa(dp17
g2
g3
sg4
I20
sg5
I0
sg6
F0.16907620429992676
sg7
S'Tahiti'
p18
sg9
I128
sg10
F5.844832897186279
sg11
F0.09966397285461426
sg12
g13
sg14
F1.0
sa(dp19
g2
g3
sg4
I50
sg5
I0
sg6
F0.17099499702453613
sg7
S'Tahiti'
p20
sg9
I128
sg10
F15.309447050094604
sg11
F0.12748098373413086
sg12
g13
sg14
F1.0
sa(dp21
g2
g3
sg4
I100
sg5
I0
sg6
F0.14986395835876465
sg7
S'Tahiti'
p22
sg9
I128
sg10
F31.690846920013428
sg11
F0.17248296737670898
sg12
g13
sg14
F1.0
sa(dp23
g2
g3
sg4
I200
sg5
I0
sg6
F0.1930220127105713
sg7
S'Tahiti'
p24
sg9
I128
sg10
F72.53523397445679
sg11
F0.2905898094177246
sg12
g13
sg14
F1.0
sa(dp25
g2
g3
sg4
I500
sg5
I0
sg6
F0.21324682235717773
sg7
S'Tahiti'
p26
sg9
I128
sg10
F232.99957418441772
sg11
F0.9463732242584229
sg12
g13
sg14
F1.0
sa.