(lp0
(dp1
S'status'
p2
S'ok'
p3
sS'dim'
p4
I5
sS'profiling'
p5
I0
sS'warmtime'
p6
F0.026388168334960938
sS'name'
p7
S'ref'
p8
sS'neurons_per_product'
p9
I128
sS'buildtime'
p10
F3.416123867034912
sS'runtime'
p11
F2.629997968673706
sS'benchmark'
p12
S'circ-conv'
p13
sS'simtime'
p14
F1.0
sa(dp15
g2
g3
sg4
I10
sg5
I0
sg6
F0.05249905586242676
sg7
g8
sg9
I128
sg10
F6.831790924072266
sg11
F5.215625047683716
sg12
g13
sg14
F1.0
sa(dp16
g2
g3
sg4
I20
sg5
I0
sg6
F0.10598921775817871
sg7
g8
sg9
I128
sg10
F14.286979913711548
sg11
F10.529549837112427
sg12
g13
sg14
F1.0
sa(dp17
g2
g3
sg4
I50
sg5
I0
sg6
F0.2706489562988281
sg7
g8
sg9
I128
sg10
F36.87186598777771
sg11
F27.006960153579712
sg12
g13
sg14
F1.0
sa.