(lp0
(dp1
S'status'
p2
S'ok'
p3
sS'dim'
p4
I5
sS'profiling'
p5
I0
sS'warmtime'
p6
F0.00555109977722168
sS'name'
p7
S'Tesla C2050'
p8
sS'neurons_per_product'
p9
I128
sS'buildtime'
p10
F9.502684116363525
sS'runtime'
p11
F0.11502695083618164
sS'benchmark'
p12
S'circ-conv'
p13
sS'simtime'
p14
F1.0
sa(dp15
g2
g3
sg4
I10
sg5
I0
sg6
F0.00539398193359375
sg7
S'Tesla C2050'
p16
sg9
I128
sg10
F7.162012100219727
sg11
F0.11765193939208984
sg12
g13
sg14
F1.0
sa(dp17
g2
g3
sg4
I20
sg5
I0
sg6
F0.007120847702026367
sg7
S'Tesla C2050'
p18
sg9
I128
sg10
F14.876919031143188
sg11
F0.1367959976196289
sg12
g13
sg14
F1.0
sa(dp19
g2
g3
sg4
I50
sg5
I0
sg6
F0.013016939163208008
sg7
S'Tesla C2050'
p20
sg9
I128
sg10
F38.35382103919983
sg11
F0.26964712142944336
sg12
g13
sg14
F1.0
sa(dp21
g2
g3
sg4
I100
sg5
I0
sg6
F0.021832942962646484
sg7
S'Tesla C2050'
p22
sg9
I128
sg10
F79.50516390800476
sg11
F0.5030591487884521
sg12
g13
sg14
F1.0
sa(dp23
g2
g3
sg4
I200
sg5
I0
sg6
F0.03913402557373047
sg7
S'Tesla C2050'
p24
sg9
I128
sg10
F169.66677403450012
sg11
F1.0453169345855713
sg12
g13
sg14
F1.0
sa(dp25
g2
g3
sg4
I500
sg5
I0
sg6
F0.09922003746032715
sg7
S'Tesla C2050'
p26
sg9
I128
sg10
F507.0425338745117
sg11
F3.5938680171966553
sg12
g13
sg14
F1.0
sa.