(lp0
(dp1
S'status'
p2
S'ok'
p3
sS'dim'
p4
I5
sS'profiling'
p5
I0
sS'warmtime'
p6
F0.010000228881835938
sS'name'
p7
S'Quadro K4000'
p8
sS'neurons_per_product'
p9
I128
sS'buildtime'
p10
F3.5129997730255127
sS'runtime'
p11
F0.17499995231628418
sS'benchmark'
p12
S'circ-conv'
p13
sS'simtime'
p14
F1.0
sa(dp15
g2
g3
sg4
I10
sg5
I0
sg6
F0.004999876022338867
sg7
S'Quadro K4000'
p16
sg9
I128
sg10
F3.552999973297119
sg11
F0.17499995231628418
sg12
g13
sg14
F1.0
sa(dp17
g2
g3
sg4
I20
sg5
I0
sg6
F0.006000041961669922
sg7
S'Quadro K4000'
p18
sg9
I128
sg10
F7.509000062942505
sg11
F0.21799993515014648
sg12
g13
sg14
F1.0
sa(dp19
g2
g3
sg4
I50
sg5
I0
sg6
F0.019999980926513672
sg7
S'Quadro K4000'
p20
sg9
I128
sg10
F19.60700011253357
sg11
F0.47099995613098145
sg12
g13
sg14
F1.0
sa(dp21
g2
g3
sg4
I100
sg5
I0
sg6
F0.026000022888183594
sg7
S'Quadro K4000'
p22
sg9
I128
sg10
F42.788999795913696
sg11
F0.8900001049041748
sg12
g13
sg14
F1.0
sa(dp23
g2
g3
sg4
I200
sg5
I0
sg6
F0.06299996376037598
sg7
S'Quadro K4000'
p24
sg9
I128
sg10
F103.02999997138977
sg11
F1.9080002307891846
sg12
g13
sg14
F1.0
sa(dp25
g2
g3
sg4
I500
sg5
I0
sg6
F0.15600013732910156
sg7
S'Quadro K4000'
p26
sg9
I128
sg10
F371.93499994277954
sg11
F6.676999807357788
sg12
g13
sg14
F1.0
sa.